target datalayout = "e-m:e-p270:32:32-p271:32:32-p272:64:64-i64:64-i128:128-f80:128-n8:16:32:64-S128"
target triple = "x86_64-pc-linux-gnu"

%struct.Curl_easy = type { i32, i64, i64, ptr, %struct.Curl_llist_node, %struct.Curl_llist_node, i32, i32, %struct.Curl_message, %struct.easy_pollset, %struct.Names, ptr, ptr, ptr, ptr, %struct.SingleRequest, %struct.UserDefined, ptr, ptr, ptr, %struct.Progress, %struct.UrlState, ptr, %struct.PureInfo, %struct.curl_tlssessioninfo }
%struct.Curl_llist_node = type { ptr, ptr, ptr, ptr }
%struct.Curl_message = type { %struct.Curl_llist_node, %struct.CURLMsg }
%struct.CURLMsg = type { i32, ptr, %union.anon }
%union.anon = type { ptr }
%struct.easy_pollset = type { [5 x i32], i32, [5 x i8] }
%struct.Names = type { ptr, i32 }
%struct.SingleRequest = type <{ i64, i64, i64, i64, %struct.curltime, i32, i32, i32, i32, i64, i32, i32, i8, i8, [2 x i8], i32, ptr, ptr, %struct.bufq, i64, i64, ptr, ptr, %union.anon.0, ptr, i8, i32, [3 x i8] }>
%struct.curltime = type { i64, i32 }
%struct.bufq = type { ptr, ptr, ptr, ptr, i64, i64, i64, i32 }
%union.anon.0 = type { ptr }
%struct.UserDefined = type <{ ptr, ptr, ptr, ptr, ptr, ptr, i64, i64, i64, ptr, ptr, i64, ptr, ptr, ptr, ptr, ptr, ptr, ptr, ptr, ptr, ptr, ptr, ptr, ptr, ptr, ptr, ptr, ptr, ptr, ptr, ptr, ptr, ptr, ptr, i64, i64, i64, i64, i64, i64, i64, i64, i64, ptr, ptr, %struct.curl_mimepart, ptr, ptr, ptr, i64, %struct.ssl_config_data, %struct.ssl_config_data, ptr, i16, i8, i8, %struct.ssl_general_config, i32, i32, i32, [4 x i8], ptr, ptr, i64, i32, i8, i8, i8, i8, ptr, ptr, ptr, i32, [4 x i8], [74 x ptr], [8 x ptr], i32, i32, i32, [4 x i8], ptr, i32, [4 x i8], ptr, ptr, ptr, ptr, ptr, i32, i32, i32, i32, i32, i32, i32, i32, i64, ptr, ptr, i64, ptr, i64, ptr, ptr, ptr, ptr, i32, i16, i16, i16, i8, i8, i8, i8, i8, i8, i8, i8, i64, [6 x i8] }>
%struct.curl_mimepart = type { ptr, ptr, i32, i32, ptr, ptr, ptr, ptr, ptr, ptr, ptr, ptr, ptr, ptr, ptr, i64, %struct.mime_state, ptr, %struct.mime_encoder_state, i64 }
%struct.mime_state = type { i32, ptr, i64 }
%struct.mime_encoder_state = type { i64, i64, i64, [256 x i8] }
%struct.ssl_config_data = type { %struct.ssl_primary_config, i64, ptr, ptr, ptr, ptr, ptr, ptr, ptr, i16 }
%struct.ssl_primary_config = type { ptr, ptr, ptr, ptr, ptr, ptr, ptr, ptr, ptr, ptr, ptr, ptr, ptr, ptr, i8, i32, i8, i8 }
%struct.ssl_general_config = type { i32 }
%struct.Progress = type { i64, %struct.pgrs_dir, %struct.pgrs_dir, i64, i64, i32, i32, i64, i64, i64, i64, i64, i64, i64, i64, i64, %struct.curltime, %struct.curltime, %struct.curltime, %struct.curltime, %struct.curltime, [6 x i64], [6 x %struct.curltime], i32, i8 }
%struct.pgrs_dir = type { i64, i64, i64, %struct.pgrs_measure }
%struct.pgrs_measure = type { %struct.curltime, i64 }
%struct.UrlState = type { %struct.curltime, i64, i64, %struct.dynbuf, ptr, i64, ptr, i32, i32, i32, ptr, i32, i64, i32, ptr, %struct.digestdata, %struct.digestdata, %struct.auth, %struct.auth, %struct.Curl_async, ptr, i8, %struct.curltime, %struct.Curl_tree, %struct.Curl_llist, [15 x %struct.time_node], ptr, ptr, i64, i64, i64, i64, [32 x i8], i64, ptr, ptr, ptr, %struct.urlpieces, ptr, ptr, ptr, ptr, ptr, i64, %struct.dynbuf, %struct.Curl_llist, [2 x %struct.curl_header], ptr, i32, ptr, ptr, %struct.store_netrc, %struct.dynamically_allocated_data, i8, i8, i8, i8, i32 }
%struct.digestdata = type { ptr, ptr, ptr, ptr, ptr, ptr, i32, i8, i8 }
%struct.auth = type { i64, i64, i64, i8 }
%struct.Curl_async = type { ptr, ptr, ptr, ptr, i32, i32, i8 }
%struct.Curl_tree = type { ptr, ptr, ptr, ptr, %struct.curltime, ptr }
%struct.time_node = type { %struct.Curl_llist_node, %struct.curltime, i32 }
%struct.urlpieces = type { ptr, ptr, ptr, ptr, ptr, ptr, ptr, ptr }
%struct.dynbuf = type { ptr, i64, i64, i64 }
%struct.Curl_llist = type { ptr, ptr, ptr, i64 }
%struct.curl_header = type { ptr, ptr, i64, i64, i32, ptr }
%struct.store_netrc = type { %struct.dynbuf, ptr, i8 }
%struct.dynamically_allocated_data = type { ptr, ptr, ptr, ptr, ptr, ptr, ptr, ptr, ptr, ptr, ptr, ptr, ptr, ptr }
%struct.PureInfo = type { i32, i32, i32, i64, i64, i64, i64, i64, i64, i64, ptr, ptr, i64, i32, %struct.ip_quadruple, i32, ptr, i32, %struct.curl_certinfo, i32, i8 }
%struct.ip_quadruple = type { [46 x i8], [46 x i8], i32, i32 }
%struct.curl_certinfo = type { i32, ptr }
%struct.curl_tlssessioninfo = type { i32, ptr }
%struct.Curl_creader = type { ptr, ptr, ptr, i32 }
%struct.cr_exp100_ctx = type { %struct.Curl_creader, %struct.curltime, i32 }

; Function Attrs: nounwind uwtable
define internal void @http_exp100_continue(ptr noundef %0, ptr noundef %1) #0 {
  %3 = alloca ptr, align 8
  %4 = alloca ptr, align 8
  %5 = alloca ptr, align 8
  store ptr %0, ptr %3, align 8, !tbaa !3
  store ptr %1, ptr %4, align 8, !tbaa !278
  call void @llvm.lifetime.start.p0(i64 8, ptr %5) #7
  %6 = load ptr, ptr %4, align 8, !tbaa !278
  %7 = getelementptr inbounds nuw %struct.Curl_creader, ptr %6, i32 0, i32 2
  %8 = load ptr, ptr %7, align 8, !tbaa !279
  store ptr %8, ptr %5, align 8, !tbaa !282
  %9 = load ptr, ptr %5, align 8, !tbaa !282
  %10 = getelementptr inbounds nuw %struct.cr_exp100_ctx, ptr %9, i32 0, i32 2
  %11 = load i32, ptr %10, align 8, !tbaa !284
  %12 = icmp ugt i32 %11, 0
  br i1 %12, label %13, label %27

13:                                               ; preds = %2
  %14 = load ptr, ptr %5, align 8, !tbaa !282
  %15 = getelementptr inbounds nuw %struct.cr_exp100_ctx, ptr %14, i32 0, i32 2
  store i32 0, ptr %15, align 8, !tbaa !284
  %16 = load ptr, ptr %3, align 8, !tbaa !3
  %17 = getelementptr inbounds nuw %struct.Curl_easy, ptr %16, i32 0, i32 15
  %18 = getelementptr inbounds nuw %struct.SingleRequest, ptr %17, i32 0, i32 11
  %19 = load i32, ptr %18, align 4, !tbaa !288
  %20 = or i32 %19, 2
  store i32 %20, ptr %18, align 4, !tbaa !288
  %21 = load ptr, ptr %3, align 8, !tbaa !3
  %22 = getelementptr inbounds nuw %struct.Curl_easy, ptr %21, i32 0, i32 15
  %23 = getelementptr inbounds nuw %struct.SingleRequest, ptr %22, i32 0, i32 11
  %24 = load i32, ptr %23, align 4, !tbaa !288
  %25 = and i32 %24, -65
  store i32 %25, ptr %23, align 4, !tbaa !288
  %26 = load ptr, ptr %3, align 8, !tbaa !3
  call void @Curl_expire_done(ptr noundef %26, i32 noundef 0)
  br label %27

27:                                               ; preds = %13, %2
  call void @llvm.lifetime.end.p0(i64 8, ptr %5) #7
  ret void
}

; Function Attrs: nounwind uwtable
define internal void @http_exp100_send_anyway(ptr noundef %0) #0 {
  %2 = alloca ptr, align 8
  %3 = alloca ptr, align 8
  store ptr %0, ptr %2, align 8, !tbaa !3
  call void @llvm.lifetime.start.p0(i64 8, ptr %3) #7
  %4 = load ptr, ptr %2, align 8, !tbaa !3
  %5 = call ptr @Curl_creader_get_by_type(ptr noundef %4, ptr noundef @cr_exp100)
  store ptr %5, ptr %3, align 8, !tbaa !278
  %6 = load ptr, ptr %3, align 8, !tbaa !278
  %7 = icmp ne ptr %6, null
  br i1 %7, label %8, label %11

8:                                                ; preds = %1
  %9 = load ptr, ptr %2, align 8, !tbaa !3
  %10 = load ptr, ptr %3, align 8, !tbaa !278
  call void @http_exp100_continue(ptr noundef %9, ptr noundef %10)
  br label %11

11:                                               ; preds = %8, %1
  call void @llvm.lifetime.end.p0(i64 8, ptr %3) #7
  ret void
}